target datalayout = "e-m:e-p270:32:32-p271:32:32-p272:64:64-i64:64-i128:128-f80:128-n8:16:32:64-S128"
target triple = "x86_64-pc-linux-gnu"

%struct.diff_options = type { ptr, ptr, i32, i32, ptr, i32, ptr, i64, i64, ptr, ptr, ptr, ptr, %struct.diff_flags, i32, i32, i32, i32, i32, i32, i32, i32, i32, i32, i32, i32, i32, i32, i32, i32, i32, i32, i32, i32, i32, i32, ptr, i32, ptr, i32, i32, ptr, i64, i64, i32, i32, i32, i32, ptr, i32, i32, ptr, i32, i32, ptr, ptr, i32, [3 x i8], %struct.pathspec, ptr, ptr, ptr, ptr, ptr, ptr, ptr, ptr, i32, ptr, i32, i32, ptr, ptr, i32 }
%struct.diff_flags = type { i32, i32, i32, i32, i32, i32, i32, i32, i32, i32, i32, i32, i32, i32, i32, i32, i32, i32, i32, i32, i32, i32, i32, i32, i32, i32, i32, i32, i32, i32, i32, i32, i32, i32, i32 }
%struct.pathspec = type { i32, i8, i32, i32, ptr }
%struct.option = type { i32, i32, ptr, ptr, ptr, ptr, i32, ptr, i64, ptr, i64, ptr }

@.str = private unnamed_addr constant [6 x i8] c"plain\00", align 1
@.str.41 = private unnamed_addr constant [1 x i8] zeroinitializer, align 1
@.str.116 = private unnamed_addr constant [6 x i8] c"color\00", align 1
@.str.256 = private unnamed_addr constant [7 x i8] c"diff.c\00", align 1
@git_gettext_enabled = external global i32, align 4
@.str.293 = private unnamed_addr constant [5 x i8] c"none\00", align 1
@.str.331 = private unnamed_addr constant [41 x i8] c"option callback does not expect negation\00", align 1
@.str.346 = private unnamed_addr constant [10 x i8] c"porcelain\00", align 1
@.str.347 = private unnamed_addr constant [29 x i8] c"bad --word-diff argument: %s\00", align 1

; Function Attrs: inlinehint nounwind uwtable
define internal i32 @const_error() #2 {
  ret i32 -1
}

; Function Attrs: inlinehint nounwind uwtable
define internal ptr @_(ptr noundef %0) #2 {
  %2 = alloca ptr, align 8
  %3 = alloca ptr, align 8
  store ptr %0, ptr %3, align 8, !tbaa !9
  %4 = load ptr, ptr %3, align 8, !tbaa !9
  %5 = load i8, ptr %4, align 1, !tbaa !48
  %6 = icmp ne i8 %5, 0
  br i1 %6, label %8, label %7

7:                                                ; preds = %1
  store ptr @.str.41, ptr %2, align 8
  br label %16

8:                                                ; preds = %1
  %9 = load i32, ptr @git_gettext_enabled, align 4, !tbaa !16
  %10 = icmp ne i32 %9, 0
  br i1 %10, label %13, label %11

11:                                               ; preds = %8
  %12 = load ptr, ptr %3, align 8, !tbaa !9
  store ptr %12, ptr %2, align 8
  br label %16

13:                                               ; preds = %8
  %14 = load ptr, ptr %3, align 8, !tbaa !9
  %15 = call ptr @dcgettext(ptr noundef null, ptr noundef %14, i32 noundef 5) #10
  store ptr %15, ptr %2, align 8
  br label %16

16:                                               ; preds = %13, %11, %7
  %17 = load ptr, ptr %2, align 8
  ret ptr %17
}

; Function Attrs: nounwind uwtable
define internal i32 @diff_opt_word_diff(ptr noundef %0, ptr noundef %1, i32 noundef %2) #0 {
  %4 = alloca i32, align 4
  %5 = alloca ptr, align 8
  %6 = alloca ptr, align 8
  %7 = alloca i32, align 4
  %8 = alloca ptr, align 8
  %9 = alloca i32, align 4
  store ptr %0, ptr %5, align 8, !tbaa !217
  store ptr %1, ptr %6, align 8, !tbaa !9
  store i32 %2, ptr %7, align 4, !tbaa !16
  call void @llvm.lifetime.start.p0(i64 8, ptr %8) #10
  %10 = load ptr, ptr %5, align 8, !tbaa !217
  %11 = getelementptr inbounds nuw %struct.option, ptr %10, i32 0, i32 3
  %12 = load ptr, ptr %11, align 8, !tbaa !224
  store ptr %12, ptr %8, align 8, !tbaa !34
  br label %13

13:                                               ; preds = %3
  %14 = load i32, ptr %7, align 4, !tbaa !16
  %15 = icmp ne i32 %14, 0
  br i1 %15, label %16, label %17

16:                                               ; preds = %13
  call void (ptr, i32, ptr, ...) @BUG_fl(ptr noundef @.str.256, i32 noundef 5573, ptr noundef @.str.331) #12
  unreachable

17:                                               ; preds = %13
  br label %18

18:                                               ; preds = %17
  br label %19

19:                                               ; preds = %18
  %20 = load ptr, ptr %6, align 8, !tbaa !9
  %21 = icmp ne ptr %20, null
  br i1 %21, label %22, label %61

22:                                               ; preds = %19
  %23 = load ptr, ptr %6, align 8, !tbaa !9
  %24 = call i32 @strcmp(ptr noundef %23, ptr noundef @.str) #11
  %25 = icmp ne i32 %24, 0
  br i1 %25, label %29, label %26

26:                                               ; preds = %22
  %27 = load ptr, ptr %8, align 8, !tbaa !34
  %28 = getelementptr inbounds nuw %struct.diff_options, ptr %27, i32 0, i32 49
  store i32 2, ptr %28, align 8, !tbaa !252
  br label %60

29:                                               ; preds = %22
  %30 = load ptr, ptr %6, align 8, !tbaa !9
  %31 = call i32 @strcmp(ptr noundef %30, ptr noundef @.str.116) #11
  %32 = icmp ne i32 %31, 0
  br i1 %32, label %38, label %33

33:                                               ; preds = %29
  %34 = load ptr, ptr %8, align 8, !tbaa !34
  %35 = getelementptr inbounds nuw %struct.diff_options, ptr %34, i32 0, i32 16
  store i32 1, ptr %35, align 4, !tbaa !169
  %36 = load ptr, ptr %8, align 8, !tbaa !34
  %37 = getelementptr inbounds nuw %struct.diff_options, ptr %36, i32 0, i32 49
  store i32 3, ptr %37, align 8, !tbaa !252
  br label %59

38:                                               ; preds = %29
  %39 = load ptr, ptr %6, align 8, !tbaa !9
  %40 = call i32 @strcmp(ptr noundef %39, ptr noundef @.str.346) #11
  %41 = icmp ne i32 %40, 0
  br i1 %41, label %45, label %42

42:                                               ; preds = %38
  %43 = load ptr, ptr %8, align 8, !tbaa !34
  %44 = getelementptr inbounds nuw %struct.diff_options, ptr %43, i32 0, i32 49
  store i32 1, ptr %44, align 8, !tbaa !252
  br label %58

45:                                               ; preds = %38
  %46 = load ptr, ptr %6, align 8, !tbaa !9
  %47 = call i32 @strcmp(ptr noundef %46, ptr noundef @.str.293) #11
  %48 = icmp ne i32 %47, 0
  br i1 %48, label %52, label %49

49:                                               ; preds = %45
  %50 = load ptr, ptr %8, align 8, !tbaa !34
  %51 = getelementptr inbounds nuw %struct.diff_options, ptr %50, i32 0, i32 49
  store i32 0, ptr %51, align 8, !tbaa !252
  br label %57

52:                                               ; preds = %45
  %53 = call ptr @_(ptr noundef @.str.347)
  %54 = load ptr, ptr %6, align 8, !tbaa !9
  %55 = call i32 (ptr, ...) @error(ptr noundef %53, ptr noundef %54)
  %56 = call i32 @const_error()
  store i32 %56, ptr %4, align 4
  store i32 1, ptr %9, align 4
  br label %71

57:                                               ; preds = %49
  br label %58

58:                                               ; preds = %57, %42
  br label %59

59:                                               ; preds = %58, %33
  br label %60

60:                                               ; preds = %59, %26
  br label %70

61:                                               ; preds = %19
  %62 = load ptr, ptr %8, align 8, !tbaa !34
  %63 = getelementptr inbounds nuw %struct.diff_options, ptr %62, i32 0, i32 49
  %64 = load i32, ptr %63, align 8, !tbaa !252
  %65 = icmp eq i32 %64, 0
  br i1 %65, label %66, label %69

66:                                               ; preds = %61
  %67 = load ptr, ptr %8, align 8, !tbaa !34
  %68 = getelementptr inbounds nuw %struct.diff_options, ptr %67, i32 0, i32 49
  store i32 2, ptr %68, align 8, !tbaa !252
  br label %69

69:                                               ; preds = %66, %61
  br label %70

70:                                               ; preds = %69, %60
  store i32 0, ptr %4, align 4
  store i32 1, ptr %9, align 4
  br label %71

71:                                               ; preds = %70, %52
  call void @llvm.lifetime.end.p0(i64 8, ptr %8) #10
  %72 = load i32, ptr %4, align 4
  ret i32 %72
}