; Function Attrs: nounwind uwtable
define internal range(i32 -1, 1) i32 @diff_opt_word_diff(ptr noundef readonly captures(none) %0, ptr noundef %1, i32 noundef %2) #0 {
  %4 = getelementptr inbounds nuw i8, ptr %0, i64 16
  %5 = load ptr, ptr %4, align 8, !tbaa !215
  %.not = icmp eq i32 %2, 0
  br i1 %.not, label %7, label %6

6:                                                ; preds = %3
  tail call void (ptr, i32, ptr, ...) @BUG_fl(ptr noundef nonnull @.str.256, i32 noundef 5573, ptr noundef nonnull @.str.331) #34
  unreachable

7:                                                ; preds = %3
  %.not16 = icmp eq ptr %1, null
  br i1 %.not16, label %30, label %8

8:                                                ; preds = %7
  %9 = tail call i32 @strcmp(ptr noundef nonnull dereferenceable(1) %1, ptr noundef nonnull dereferenceable(6) @.str) #33
  %.not17 = icmp eq i32 %9, 0
  br i1 %.not17, label %10, label %12

10:                                               ; preds = %8
  %11 = getelementptr inbounds nuw i8, ptr %5, i64 408
  store i32 2, ptr %11, align 8, !tbaa !241
  br label %35

12:                                               ; preds = %8
  %13 = tail call i32 @strcmp(ptr noundef nonnull dereferenceable(1) %1, ptr noundef nonnull dereferenceable(6) @.str.116) #33
  %.not18 = icmp eq i32 %13, 0
  br i1 %.not18, label %14, label %17

14:                                               ; preds = %12
  %15 = getelementptr inbounds nuw i8, ptr %5, i64 244
  store i32 1, ptr %15, align 4, !tbaa !154
  %16 = getelementptr inbounds nuw i8, ptr %5, i64 408
  store i32 3, ptr %16, align 8, !tbaa !241
  br label %35

17:                                               ; preds = %12
  %18 = tail call i32 @strcmp(ptr noundef nonnull dereferenceable(1) %1, ptr noundef nonnull dereferenceable(10) @.str.346) #33
  %.not19 = icmp eq i32 %18, 0
  br i1 %.not19, label %19, label %21

19:                                               ; preds = %17
  %20 = getelementptr inbounds nuw i8, ptr %5, i64 408
  store i32 1, ptr %20, align 8, !tbaa !241
  br label %35

21:                                               ; preds = %17
  %22 = tail call i32 @strcmp(ptr noundef nonnull dereferenceable(1) %1, ptr noundef nonnull dereferenceable(5) @.str.293) #33
  %.not20 = icmp eq i32 %22, 0
  br i1 %.not20, label %23, label %25

23:                                               ; preds = %21
  %24 = getelementptr inbounds nuw i8, ptr %5, i64 408
  store i32 0, ptr %24, align 8, !tbaa !241
  br label %35

25:                                               ; preds = %21
  %26 = load i32, ptr @git_gettext_enabled, align 4, !tbaa !11
  %.not4.i = icmp eq i32 %26, 0
  br i1 %.not4.i, label %_.exit, label %27

27:                                               ; preds = %25
  %28 = tail call ptr @dcgettext(ptr noundef null, ptr noundef nonnull @.str.347, i32 noundef 5) #32
  br label %_.exit

_.exit:                                           ; preds = %25, %27
  %.0.i = phi ptr [ %28, %27 ], [ @.str.347, %25 ]
  %29 = tail call i32 (ptr, ...) @error(ptr noundef %.0.i, ptr noundef nonnull %1) #32
  br label %35

30:                                               ; preds = %7
  %31 = getelementptr inbounds nuw i8, ptr %5, i64 408
  %32 = load i32, ptr %31, align 8, !tbaa !241
  %33 = icmp eq i32 %32, 0
  br i1 %33, label %34, label %35

34:                                               ; preds = %30
  store i32 2, ptr %31, align 8, !tbaa !241
  br label %35

35:                                               ; preds = %14, %23, %19, %10, %34, %30, %_.exit
  %.0 = phi i32 [ -1, %_.exit ], [ 0, %30 ], [ 0, %34 ], [ 0, %10 ], [ 0, %19 ], [ 0, %23 ], [ 0, %14 ]
  ret i32 %.0
}